target datalayout = "e-m:e-p270:32:32-p271:32:32-p272:64:64-i64:64-i128:128-f80:128-n8:16:32:64-S128"
target triple = "x86_64-unknown-linux-gnu"

%"class.euf::ackerman" = type <{ ptr, ptr, %class.hashtable, ptr, ptr, i32, i32, i32, [4 x i8] }>
%class.hashtable = type { %class.core_hashtable.base, [4 x i8] }
%class.core_hashtable.base = type <{ ptr, i32, i32, i32 }>
%class.ast = type { i32, i24, i32, i32 }
%class.app = type { %class.expr, ptr, i32, [0 x ptr] }
%class.expr = type { %class.ast }

; Function Attrs: mustprogress nounwind uwtable
define linkonce_odr hidden noundef ptr @_ZNK3app3endEv(ptr noundef nonnull align 8 dereferenceable(32) %this) #4 comdat align 2 {
entry:
  %this.addr = alloca ptr, align 8
  store ptr %this, ptr %this.addr, align 8
  %this1 = load ptr, ptr %this.addr, align 8
  %m_args = getelementptr inbounds %class.app, ptr %this1, i32 0, i32 3
  %arraydecay = getelementptr inbounds [0 x ptr], ptr %m_args, i64 0, i64 0
  %m_num_args = getelementptr inbounds %class.app, ptr %this1, i32 0, i32 2
  %0 = load i32, ptr %m_num_args, align 8
  %idx.ext = zext i32 %0 to i64
  %add.ptr = getelementptr inbounds ptr, ptr %arraydecay, i64 %idx.ext
  ret ptr %add.ptr
}

; Function Attrs: mustprogress nounwind uwtable
define linkonce_odr hidden noundef ptr @_ZNK3app5beginEv(ptr noundef nonnull align 8 dereferenceable(32) %this) #4 comdat align 2 {
entry:
  %this.addr = alloca ptr, align 8
  store ptr %this, ptr %this.addr, align 8
  %this1 = load ptr, ptr %this.addr, align 8
  %m_args = getelementptr inbounds %class.app, ptr %this1, i32 0, i32 3
  %arraydecay = getelementptr inbounds [0 x ptr], ptr %m_args, i64 0, i64 0
  ret ptr %arraydecay
}

; Function Attrs: mustprogress nounwind uwtable
define linkonce_odr hidden noundef i32 @_ZNK3ast8get_kindEv(ptr noundef nonnull align 4 dereferenceable(16) %this) #4 comdat align 2 {
entry:
  %this.addr = alloca ptr, align 8
  store ptr %this, ptr %this.addr, align 8
  %this1 = load ptr, ptr %this.addr, align 8
  %m_kind = getelementptr inbounds %class.ast, ptr %this1, i32 0, i32 1
  %bf.load = load i32, ptr %m_kind, align 4
  %bf.clear = and i32 %bf.load, 65535
  ret i32 %bf.clear
}

; Function Attrs: mustprogress uwtable
define hidden noundef zeroext i1 @_ZN3euf8ackerman9enable_ccEP3appS2_(ptr noundef nonnull align 8 dereferenceable(68) %this, ptr noundef %a, ptr noundef %b) #5 align 2 {
entry:
  %retval = alloca i1, align 1
  %this.addr = alloca ptr, align 8
  %a.addr = alloca ptr, align 8
  %b.addr = alloca ptr, align 8
  %__range1 = alloca ptr, align 8
  %__begin1 = alloca ptr, align 8
  %__end1 = alloca ptr, align 8
  %arg = alloca ptr, align 8
  %__range112 = alloca ptr, align 8
  %__begin113 = alloca ptr, align 8
  %__end115 = alloca ptr, align 8
  %arg20 = alloca ptr, align 8
  store ptr %this, ptr %this.addr, align 8
  store ptr %a, ptr %a.addr, align 8
  store ptr %b, ptr %b.addr, align 8
  %this1 = load ptr, ptr %this.addr, align 8
  %ctx = getelementptr inbounds %"class.euf::ackerman", ptr %this1, i32 0, i32 0
  %0 = load ptr, ptr %ctx, align 8
  %1 = load ptr, ptr %a.addr, align 8
  %call = call noundef zeroext i1 @_ZNK3euf6solver22enable_ackerman_axiomsEP4expr(ptr noundef nonnull align 8 dereferenceable(9136) %0, ptr noundef %1)
  br i1 %call, label %if.end, label %if.then

if.then:                                          ; preds = %entry
  store i1 false, ptr %retval, align 1
  br label %return

if.end:                                           ; preds = %entry
  %ctx2 = getelementptr inbounds %"class.euf::ackerman", ptr %this1, i32 0, i32 0
  %2 = load ptr, ptr %ctx2, align 8
  %3 = load ptr, ptr %b.addr, align 8
  %call3 = call noundef zeroext i1 @_ZNK3euf6solver22enable_ackerman_axiomsEP4expr(ptr noundef nonnull align 8 dereferenceable(9136) %2, ptr noundef %3)
  br i1 %call3, label %if.end5, label %if.then4

if.then4:                                         ; preds = %if.end
  store i1 false, ptr %retval, align 1
  br label %return

if.end5:                                          ; preds = %if.end
  %4 = load ptr, ptr %a.addr, align 8
  store ptr %4, ptr %__range1, align 8
  %5 = load ptr, ptr %__range1, align 8
  %call6 = call noundef ptr @_ZNK3app5beginEv(ptr noundef nonnull align 8 dereferenceable(32) %5)
  store ptr %call6, ptr %__begin1, align 8
  %6 = load ptr, ptr %__range1, align 8
  %call7 = call noundef ptr @_ZNK3app3endEv(ptr noundef nonnull align 8 dereferenceable(32) %6)
  store ptr %call7, ptr %__end1, align 8
  br label %for.cond

for.cond:                                         ; preds = %for.inc, %if.end5
  %7 = load ptr, ptr %__begin1, align 8
  %8 = load ptr, ptr %__end1, align 8
  %cmp = icmp ne ptr %7, %8
  br i1 %cmp, label %for.body, label %for.end

for.body:                                         ; preds = %for.cond
  %9 = load ptr, ptr %__begin1, align 8
  %10 = load ptr, ptr %9, align 8
  store ptr %10, ptr %arg, align 8
  %ctx8 = getelementptr inbounds %"class.euf::ackerman", ptr %this1, i32 0, i32 0
  %11 = load ptr, ptr %ctx8, align 8
  %12 = load ptr, ptr %arg, align 8
  %call9 = call noundef zeroext i1 @_ZNK3euf6solver22enable_ackerman_axiomsEP4expr(ptr noundef nonnull align 8 dereferenceable(9136) %11, ptr noundef %12)
  br i1 %call9, label %if.end11, label %if.then10

if.then10:                                        ; preds = %for.body
  store i1 false, ptr %retval, align 1
  br label %return

if.end11:                                         ; preds = %for.body
  br label %for.inc

for.inc:                                          ; preds = %if.end11
  %13 = load ptr, ptr %__begin1, align 8
  %incdec.ptr = getelementptr inbounds ptr, ptr %13, i32 1
  store ptr %incdec.ptr, ptr %__begin1, align 8
  br label %for.cond

for.end:                                          ; preds = %for.cond
  %14 = load ptr, ptr %b.addr, align 8
  store ptr %14, ptr %__range112, align 8
  %15 = load ptr, ptr %__range112, align 8
  %call14 = call noundef ptr @_ZNK3app5beginEv(ptr noundef nonnull align 8 dereferenceable(32) %15)
  store ptr %call14, ptr %__begin113, align 8
  %16 = load ptr, ptr %__range112, align 8
  %call16 = call noundef ptr @_ZNK3app3endEv(ptr noundef nonnull align 8 dereferenceable(32) %16)
  store ptr %call16, ptr %__end115, align 8
  br label %for.cond17

for.cond17:                                       ; preds = %for.inc25, %for.end
  %17 = load ptr, ptr %__begin113, align 8
  %18 = load ptr, ptr %__end115, align 8
  %cmp18 = icmp ne ptr %17, %18
  br i1 %cmp18, label %for.body19, label %for.end27

for.body19:                                       ; preds = %for.cond17
  %19 = load ptr, ptr %__begin113, align 8
  %20 = load ptr, ptr %19, align 8
  store ptr %20, ptr %arg20, align 8
  %ctx21 = getelementptr inbounds %"class.euf::ackerman", ptr %this1, i32 0, i32 0
  %21 = load ptr, ptr %ctx21, align 8
  %22 = load ptr, ptr %arg20, align 8
  %call22 = call noundef zeroext i1 @_ZNK3euf6solver22enable_ackerman_axiomsEP4expr(ptr noundef nonnull align 8 dereferenceable(9136) %21, ptr noundef %22)
  br i1 %call22, label %if.end24, label %if.then23

if.then23:                                        ; preds = %for.body19
  store i1 false, ptr %retval, align 1
  br label %return

if.end24:                                         ; preds = %for.body19
  br label %for.inc25

for.inc25:                                        ; preds = %if.end24
  %23 = load ptr, ptr %__begin113, align 8
  %incdec.ptr26 = getelementptr inbounds ptr, ptr %23, i32 1
  store ptr %incdec.ptr26, ptr %__begin113, align 8
  br label %for.cond17

for.end27:                                        ; preds = %for.cond17
  store i1 true, ptr %retval, align 1
  br label %return

return:                                           ; preds = %for.end27, %if.then23, %if.then10, %if.then4, %if.then
  %24 = load i1, ptr %retval, align 1
  ret i1 %24
}

; Function Attrs: mustprogress nounwind uwtable
define linkonce_odr hidden noundef i32 @_ZNK3app12get_num_argsEv(ptr noundef nonnull align 8 dereferenceable(32) %this) #4 comdat align 2 {
entry:
  %this.addr = alloca ptr, align 8
  store ptr %this, ptr %this.addr, align 8
  %this1 = load ptr, ptr %this.addr, align 8
  %m_num_args = getelementptr inbounds %class.app, ptr %this1, i32 0, i32 2
  %0 = load i32, ptr %m_num_args, align 8
  ret i32 %0
}

; Function Attrs: mustprogress nounwind uwtable
define linkonce_odr hidden noundef ptr @_ZNK3app8get_declEv(ptr noundef nonnull align 8 dereferenceable(32) %this) #4 comdat align 2 {
entry:
  %this.addr = alloca ptr, align 8
  store ptr %this, ptr %this.addr, align 8
  %this1 = load ptr, ptr %this.addr, align 8
  %m_decl = getelementptr inbounds %class.app, ptr %this1, i32 0, i32 1
  %0 = load ptr, ptr %m_decl, align 8
  ret ptr %0
}

; Function Attrs: mustprogress nounwind uwtable
define linkonce_odr hidden noundef ptr @_Z6to_appP3ast(ptr noundef %n) #4 comdat {
entry:
  %n.addr = alloca ptr, align 8
  store ptr %n, ptr %n.addr, align 8
  %0 = load ptr, ptr %n.addr, align 8
  ret ptr %0
}

; Function Attrs: mustprogress uwtable
define linkonce_odr hidden noundef zeroext i1 @_Z6is_appPK3ast(ptr noundef %n) #5 comdat {
entry:
  %n.addr = alloca ptr, align 8
  store ptr %n, ptr %n.addr, align 8
  %0 = load ptr, ptr %n.addr, align 8
  %call = call noundef i32 @_ZNK3ast8get_kindEv(ptr noundef nonnull align 4 dereferenceable(16) %0)
  %cmp = icmp eq i32 %call, 0
  ret i1 %cmp
}

; Function Attrs: mustprogress uwtable
define hidden void @_ZN3euf8ackerman14cg_conflict_ehEP4exprS2_(ptr noundef nonnull align 8 dereferenceable(68) %this, ptr noundef %n1, ptr noundef %n2) #5 align 2 {
entry:
  %this.addr = alloca ptr, align 8
  %n1.addr = alloca ptr, align 8
  %n2.addr = alloca ptr, align 8
  %a = alloca ptr, align 8
  %b = alloca ptr, align 8
  store ptr %this, ptr %this.addr, align 8
  store ptr %n1, ptr %n1.addr, align 8
  store ptr %n2, ptr %n2.addr, align 8
  %this1 = load ptr, ptr %this.addr, align 8
  %0 = load ptr, ptr %n1.addr, align 8
  %call = call noundef zeroext i1 @_Z6is_appPK3ast(ptr noundef %0)
  br i1 %call, label %lor.lhs.false, label %if.then

lor.lhs.false:                                    ; preds = %entry
  %1 = load ptr, ptr %n2.addr, align 8
  %call2 = call noundef zeroext i1 @_Z6is_appPK3ast(ptr noundef %1)
  br i1 %call2, label %if.end, label %if.then

if.then:                                          ; preds = %lor.lhs.false, %entry
  br label %return

if.end:                                           ; preds = %lor.lhs.false
  %ctx = getelementptr inbounds %"class.euf::ackerman", ptr %this1, i32 0, i32 0
  %2 = load ptr, ptr %ctx, align 8
  %3 = load ptr, ptr %n1.addr, align 8
  %call3 = call noundef zeroext i1 @_ZNK3euf6solver22enable_ackerman_axiomsEP4expr(ptr noundef nonnull align 8 dereferenceable(9136) %2, ptr noundef %3)
  br i1 %call3, label %if.end5, label %if.then4

if.then4:                                         ; preds = %if.end
  br label %return

if.end5:                                          ; preds = %if.end
  %4 = load ptr, ptr %n1.addr, align 8
  %call6 = call noundef ptr @_Z6to_appP3ast(ptr noundef %4)
  store ptr %call6, ptr %a, align 8
  %5 = load ptr, ptr %n2.addr, align 8
  %call7 = call noundef ptr @_Z6to_appP3ast(ptr noundef %5)
  store ptr %call7, ptr %b, align 8
  %6 = load ptr, ptr %a, align 8
  %call8 = call noundef ptr @_ZNK3app8get_declEv(ptr noundef nonnull align 8 dereferenceable(32) %6)
  %7 = load ptr, ptr %b, align 8
  %call9 = call noundef ptr @_ZNK3app8get_declEv(ptr noundef nonnull align 8 dereferenceable(32) %7)
  %cmp = icmp ne ptr %call8, %call9
  br i1 %cmp, label %if.then14, label %lor.lhs.false10

lor.lhs.false10:                                  ; preds = %if.end5
  %8 = load ptr, ptr %a, align 8
  %call11 = call noundef i32 @_ZNK3app12get_num_argsEv(ptr noundef nonnull align 8 dereferenceable(32) %8)
  %9 = load ptr, ptr %b, align 8
  %call12 = call noundef i32 @_ZNK3app12get_num_argsEv(ptr noundef nonnull align 8 dereferenceable(32) %9)
  %cmp13 = icmp ne i32 %call11, %call12
  br i1 %cmp13, label %if.then14, label %if.end15

if.then14:                                        ; preds = %lor.lhs.false10, %if.end5
  br label %return

if.end15:                                         ; preds = %lor.lhs.false10
  %10 = load ptr, ptr %a, align 8
  %11 = load ptr, ptr %b, align 8
  %call16 = call noundef zeroext i1 @_ZN3euf8ackerman9enable_ccEP3appS2_(ptr noundef nonnull align 8 dereferenceable(68) %this1, ptr noundef %10, ptr noundef %11)
  br i1 %call16, label %if.end18, label %if.then17

if.then17:                                        ; preds = %if.end15
  br label %return

if.end18:                                         ; preds = %if.end15
  %12 = load ptr, ptr %a, align 8
  %13 = load ptr, ptr %b, align 8
  call void @_ZN3euf8ackerman6insertEP3appS2_(ptr noundef nonnull align 8 dereferenceable(68) %this1, ptr noundef %12, ptr noundef %13)
  call void @_ZN3euf8ackerman2gcEv(ptr noundef nonnull align 8 dereferenceable(68) %this1)
  br label %return

return:                                           ; preds = %if.end18, %if.then17, %if.then14, %if.then4, %if.then
  ret void
}