; Function Attrs: mustprogress uwtable
define hidden void @_ZN3euf8ackerman14cg_conflict_ehEP4exprS2_(ptr noundef nonnull align 8 dereferenceable(68) %this, ptr noundef %n1, ptr noundef %n2) local_unnamed_addr #3 align 2 {
entry:
  %m_kind.i.i = getelementptr inbounds i8, ptr %n1, i64 4
  %bf.load.i.i = load i32, ptr %m_kind.i.i, align 4
  %bf.clear.i.i = and i32 %bf.load.i.i, 65535
  %cmp.i = icmp eq i32 %bf.clear.i.i, 0
  br i1 %cmp.i, label %lor.lhs.false, label %return

lor.lhs.false:                                    ; preds = %entry
  %m_kind.i.i10 = getelementptr inbounds i8, ptr %n2, i64 4
  %bf.load.i.i11 = load i32, ptr %m_kind.i.i10, align 4
  %bf.clear.i.i12 = and i32 %bf.load.i.i11, 65535
  %cmp.i13 = icmp eq i32 %bf.clear.i.i12, 0
  br i1 %cmp.i13, label %if.end, label %return

if.end:                                           ; preds = %lor.lhs.false
  %0 = load ptr, ptr %this, align 8
  %call3 = tail call noundef zeroext i1 @_ZNK3euf6solver22enable_ackerman_axiomsEP4expr(ptr noundef nonnull align 8 dereferenceable(9136) %0, ptr noundef nonnull %n1)
  br i1 %call3, label %if.end5, label %return

if.end5:                                          ; preds = %if.end
  %m_decl.i = getelementptr inbounds i8, ptr %n1, i64 16
  %1 = load ptr, ptr %m_decl.i, align 8
  %m_decl.i14 = getelementptr inbounds i8, ptr %n2, i64 16
  %2 = load ptr, ptr %m_decl.i14, align 8
  %cmp.not = icmp eq ptr %1, %2
  br i1 %cmp.not, label %lor.lhs.false10, label %return

lor.lhs.false10:                                  ; preds = %if.end5
  %m_num_args.i = getelementptr inbounds i8, ptr %n1, i64 24
  %3 = load i32, ptr %m_num_args.i, align 8
  %m_num_args.i15 = getelementptr inbounds i8, ptr %n2, i64 24
  %4 = load i32, ptr %m_num_args.i15, align 8
  %cmp13.not = icmp eq i32 %3, %4
  br i1 %cmp13.not, label %if.end15, label %return

if.end15:                                         ; preds = %lor.lhs.false10
  %5 = load ptr, ptr %this, align 8
  %call.i = tail call noundef zeroext i1 @_ZNK3euf6solver22enable_ackerman_axiomsEP4expr(ptr noundef nonnull align 8 dereferenceable(9136) %5, ptr noundef nonnull %n1)
  br i1 %call.i, label %if.end.i, label %return

if.end.i:                                         ; preds = %if.end15
  %6 = load ptr, ptr %this, align 8
  %call3.i = tail call noundef zeroext i1 @_ZNK3euf6solver22enable_ackerman_axiomsEP4expr(ptr noundef nonnull align 8 dereferenceable(9136) %6, ptr noundef nonnull %n2)
  br i1 %call3.i, label %if.end5.i, label %return

if.end5.i:                                        ; preds = %if.end.i
  %7 = load i32, ptr %m_num_args.i, align 8
  %idx.ext.i.i = zext i32 %7 to i64
  %add.ptr.i.idx.i = shl nuw nsw i64 %idx.ext.i.i, 3
  %8 = getelementptr i8, ptr %n1, i64 %add.ptr.i.idx.i
  %add.ptr.i.ptr.i = getelementptr i8, ptr %8, i64 32
  %cmp.not16.i = icmp eq i32 %7, 0
  br i1 %cmp.not16.i, label %for.end.i, label %for.body.preheader.i

for.body.preheader.i:                             ; preds = %if.end5.i
  %m_args.i.ptr.i = getelementptr inbounds i8, ptr %n1, i64 32
  br label %for.body.i

for.cond.i:                                       ; preds = %for.body.i
  %incdec.ptr.i = getelementptr inbounds i8, ptr %__begin1.017.i, i64 8
  %cmp.not.i = icmp eq ptr %incdec.ptr.i, %add.ptr.i.ptr.i
  br i1 %cmp.not.i, label %for.end.i, label %for.body.i

for.body.i:                                       ; preds = %for.cond.i, %for.body.preheader.i
  %__begin1.017.i = phi ptr [ %incdec.ptr.i, %for.cond.i ], [ %m_args.i.ptr.i, %for.body.preheader.i ]
  %9 = load ptr, ptr %__begin1.017.i, align 8
  %10 = load ptr, ptr %this, align 8
  %call9.i = tail call noundef zeroext i1 @_ZNK3euf6solver22enable_ackerman_axiomsEP4expr(ptr noundef nonnull align 8 dereferenceable(9136) %10, ptr noundef %9)
  br i1 %call9.i, label %for.cond.i, label %return

for.end.i:                                        ; preds = %for.cond.i, %if.end5.i
  %11 = load i32, ptr %m_num_args.i15, align 8
  %idx.ext.i13.i = zext i32 %11 to i64
  %add.ptr.i14.idx.i = shl nuw nsw i64 %idx.ext.i13.i, 3
  %12 = getelementptr i8, ptr %n2, i64 %add.ptr.i14.idx.i
  %add.ptr.i14.ptr.i = getelementptr i8, ptr %12, i64 32
  %cmp18.not18.i = icmp eq i32 %11, 0
  br i1 %cmp18.not18.i, label %if.end18, label %for.body19.preheader.i

for.body19.preheader.i:                           ; preds = %for.end.i
  %m_args.i10.ptr.i = getelementptr inbounds i8, ptr %n2, i64 32
  br label %for.body19.i

for.cond17.i:                                     ; preds = %for.body19.i
  %incdec.ptr26.i = getelementptr inbounds i8, ptr %__begin113.019.i, i64 8
  %cmp18.not.i = icmp eq ptr %incdec.ptr26.i, %add.ptr.i14.ptr.i
  br i1 %cmp18.not.i, label %if.end18, label %for.body19.i

for.body19.i:                                     ; preds = %for.cond17.i, %for.body19.preheader.i
  %__begin113.019.i = phi ptr [ %incdec.ptr26.i, %for.cond17.i ], [ %m_args.i10.ptr.i, %for.body19.preheader.i ]
  %13 = load ptr, ptr %__begin113.019.i, align 8
  %14 = load ptr, ptr %this, align 8
  %call22.i = tail call noundef zeroext i1 @_ZNK3euf6solver22enable_ackerman_axiomsEP4expr(ptr noundef nonnull align 8 dereferenceable(9136) %14, ptr noundef %13)
  br i1 %call22.i, label %for.cond17.i, label %return

if.end18:                                         ; preds = %for.cond17.i, %for.end.i
  tail call void @_ZN3euf8ackerman6insertEP3appS2_(ptr noundef nonnull align 8 dereferenceable(68) %this, ptr noundef nonnull %n1, ptr noundef nonnull %n2)
  tail call void @_ZN3euf8ackerman2gcEv(ptr noundef nonnull align 8 dereferenceable(68) %this)
  br label %return

return:                                           ; preds = %for.body.i, %for.body19.i, %if.end.i, %if.end15, %if.end5, %lor.lhs.false10, %if.end, %entry, %lor.lhs.false, %if.end18
  ret void
}